; Function Attrs: mustprogress nounwind uwtable
define hidden noundef zeroext i1 @_ZNK5clang7targets19LoongArchTargetInfo14initFeatureMapERN4llvm9StringMapIbNS2_15MallocAllocatorEEERNS_17DiagnosticsEngineENS2_9StringRefERKSt6vectorINSt7__cxx1112basic_stringIcSt11char_traitsIcESaIcEEESaISG_EE(ptr noundef nonnull align 8 dereferenceable(565) %0, ptr noundef nonnull align 8 dereferenceable(24) %1, ptr noundef nonnull align 8 dereferenceable(1304) %2, ptr %3, i64 %4, ptr noundef nonnull align 8 dereferenceable(24) %5) unnamed_addr #1 align 2 {
  %7 = getelementptr inbounds i8, ptr %0, i64 248
  %8 = load i32, ptr %7, align 8
  %9 = icmp eq i32 %8, 14
  br i1 %9, label %10, label %15

10:                                               ; preds = %6
  %11 = tail call noundef i32 @_ZN4llvm13StringMapImpl4hashENS_9StringRefE(ptr nonnull @.str.299, i64 5) #12
  %12 = tail call { ptr, i8 } @_ZN4llvm9StringMapIbNS_15MallocAllocatorEE21try_emplace_with_hashIJEEESt4pairINS_17StringMapIteratorIbEEbENS_9StringRefEjDpOT_(ptr noundef nonnull align 8 dereferenceable(24) %1, ptr nonnull @.str.299, i64 5, i32 noundef %11)
  %.fca.0.extract.i = extractvalue { ptr, i8 } %12, 0
  %13 = load ptr, ptr %.fca.0.extract.i, align 8
  %14 = getelementptr inbounds nuw i8, ptr %13, i64 8
  store i8 1, ptr %14, align 1
  %.pr = load i32, ptr %7, align 8
  br label %15

15:                                               ; preds = %10, %6
  %16 = phi i32 [ %.pr, %10 ], [ %8, %6 ]
  %17 = icmp eq i32 %16, 13
  br i1 %17, label %18, label %23

18:                                               ; preds = %15
  %19 = tail call noundef i32 @_ZN4llvm13StringMapImpl4hashENS_9StringRefE(ptr nonnull @.str.300, i64 5) #12
  %20 = tail call { ptr, i8 } @_ZN4llvm9StringMapIbNS_15MallocAllocatorEE21try_emplace_with_hashIJEEESt4pairINS_17StringMapIteratorIbEEbENS_9StringRefEjDpOT_(ptr noundef nonnull align 8 dereferenceable(24) %1, ptr nonnull @.str.300, i64 5, i32 noundef %19)
  %.fca.0.extract.i8 = extractvalue { ptr, i8 } %20, 0
  %21 = load ptr, ptr %.fca.0.extract.i8, align 8
  %22 = getelementptr inbounds nuw i8, ptr %21, i64 8
  store i8 1, ptr %22, align 1
  br label %23

23:                                               ; preds = %18, %15
  %24 = tail call noundef zeroext i1 @_ZNK5clang10TargetInfo14initFeatureMapERN4llvm9StringMapIbNS1_15MallocAllocatorEEERNS_17DiagnosticsEngineENS1_9StringRefERKSt6vectorINSt7__cxx1112basic_stringIcSt11char_traitsIcESaIcEEESaISF_EE(ptr noundef nonnull align 8 dereferenceable(489) %0, ptr noundef nonnull align 8 dereferenceable(24) %1, ptr noundef nonnull align 8 dereferenceable(1304) %2, ptr %3, i64 %4, ptr noundef nonnull align 8 dereferenceable(24) %5) #12
  ret i1 %24
}